; ModuleID = '3/3024.c'
source_filename = "3/3024.c"
target datalayout = "e-m:e-p270:32:32-p271:32:32-p272:64:64-i64:64-f80:128-n8:16:32:64-S128"
target triple = "x86_64-pc-linux-gnu"

@.str = private unnamed_addr constant [5 x i8] c"%d%d\00", align 1
@.str.1 = private unnamed_addr constant [3 x i8] c"%d\00", align 1
@.str.2 = private unnamed_addr constant [4 x i8] c"yes\00", align 1
@.str.3 = private unnamed_addr constant [3 x i8] c"no\00", align 1

; Function Attrs: noinline nounwind uwtable
define dso_local i32 @main() #0 {
  %1 = alloca i32, align 4
  %2 = alloca i32, align 4
  %3 = alloca i32, align 4
  %4 = alloca i32, align 4
  %5 = alloca [1000 x i32], align 16
  %6 = alloca [1000000 x i32], align 16
  %7 = alloca i32, align 4
  %8 = alloca i32, align 4
  %9 = alloca i32, align 4
  %10 = alloca i32, align 4
  %11 = alloca i32, align 4
  store i32 0, i32* %1, align 4
  store i32 0, i32* %4, align 4
  %12 = call i32 (i8*, ...) @__isoc99_scanf(i8* getelementptr inbounds ([5 x i8], [5 x i8]* @.str, i64 0, i64 0), i32* %2, i32* %3)
  store i32 0, i32* %7, align 4
  br label %13

13:                                               ; preds = %22, %0
  %14 = load i32, i32* %7, align 4
  %15 = load i32, i32* %2, align 4
  %16 = icmp slt i32 %14, %15
  br i1 %16, label %17, label %25

17:                                               ; preds = %13
  %18 = load i32, i32* %7, align 4
  %19 = sext i32 %18 to i64
  %20 = getelementptr inbounds [1000 x i32], [1000 x i32]* %5, i64 0, i64 %19
  %21 = call i32 (i8*, ...) @__isoc99_scanf(i8* getelementptr inbounds ([3 x i8], [3 x i8]* @.str.1, i64 0, i64 0), i32* %20)
  br label %22

22:                                               ; preds = %17
  %23 = load i32, i32* %7, align 4
  %24 = add nsw i32 %23, 1
  store i32 %24, i32* %7, align 4
  br label %13

25:                                               ; preds = %13
  store i32 0, i32* %8, align 4
  br label %26

26:                                               ; preds = %56, %25
  %27 = load i32, i32* %8, align 4
  %28 = load i32, i32* %2, align 4
  %29 = icmp slt i32 %27, %28
  br i1 %29, label %30, label %59

30:                                               ; preds = %26
  %31 = load i32, i32* %8, align 4
  %32 = add nsw i32 %31, 1
  store i32 %32, i32* %9, align 4
  br label %33

33:                                               ; preds = %52, %30
  %34 = load i32, i32* %9, align 4
  %35 = load i32, i32* %2, align 4
  %36 = icmp slt i32 %34, %35
  br i1 %36, label %37, label %55

37:                                               ; preds = %33
  %38 = load i32, i32* %8, align 4
  %39 = sext i32 %38 to i64
  %40 = getelementptr inbounds [1000 x i32], [1000 x i32]* %5, i64 0, i64 %39
  %41 = load i32, i32* %40, align 4
  %42 = load i32, i32* %9, align 4
  %43 = sext i32 %42 to i64
  %44 = getelementptr inbounds [1000 x i32], [1000 x i32]* %5, i64 0, i64 %43
  %45 = load i32, i32* %44, align 4
  %46 = add nsw i32 %41, %45
  %47 = load i32, i32* %4, align 4
  %48 = sext i32 %47 to i64
  %49 = getelementptr inbounds [1000000 x i32], [1000000 x i32]* %6, i64 0, i64 %48
  store i32 %46, i32* %49, align 4
  %50 = load i32, i32* %4, align 4
  %51 = add nsw i32 %50, 1
  store i32 %51, i32* %4, align 4
  br label %52

52:                                               ; preds = %37
  %53 = load i32, i32* %9, align 4
  %54 = add nsw i32 %53, 1
  store i32 %54, i32* %9, align 4
  br label %33

55:                                               ; preds = %33
  br label %56

56:                                               ; preds = %55
  %57 = load i32, i32* %8, align 4
  %58 = add nsw i32 %57, 1
  store i32 %58, i32* %8, align 4
  br label %26

59:                                               ; preds = %26
  store i32 0, i32* %11, align 4
  store i32 0, i32* %10, align 4
  br label %60

60:                                               ; preds = %73, %59
  %61 = load i32, i32* %10, align 4
  %62 = load i32, i32* %4, align 4
  %63 = icmp slt i32 %61, %62
  br i1 %63, label %64, label %76

64:                                               ; preds = %60
  %65 = load i32, i32* %10, align 4
  %66 = sext i32 %65 to i64
  %67 = getelementptr inbounds [1000000 x i32], [1000000 x i32]* %6, i64 0, i64 %66
  %68 = load i32, i32* %67, align 4
  %69 = load i32, i32* %3, align 4
  %70 = icmp eq i32 %68, %69
  br i1 %70, label %71, label %72

71:                                               ; preds = %64
  store i32 1, i32* %11, align 4
  br label %76

72:                                               ; preds = %64
  br label %73

73:                                               ; preds = %72
  %74 = load i32, i32* %10, align 4
  %75 = add nsw i32 %74, 1
  store i32 %75, i32* %10, align 4
  br label %60

76:                                               ; preds = %71, %60
  %77 = load i32, i32* %11, align 4
  %78 = icmp eq i32 %77, 1
  br i1 %78, label %79, label %81

79:                                               ; preds = %76
  %80 = call i32 (i8*, ...) @printf(i8* getelementptr inbounds ([4 x i8], [4 x i8]* @.str.2, i64 0, i64 0))
  br label %83

81:                                               ; preds = %76
  %82 = call i32 (i8*, ...) @printf(i8* getelementptr inbounds ([3 x i8], [3 x i8]* @.str.3, i64 0, i64 0))
  br label %83

83:                                               ; preds = %81, %79
  ret i32 0
}

declare dso_local i32 @__isoc99_scanf(i8*, ...) #1

declare dso_local i32 @printf(i8*, ...) #1


!llvm.module.flags = !{!0}
!llvm.ident = !{!1}

!0 = !{i32 1, !"wchar_size", i32 4}
!1 = !{!"clang version 10.0.0-4ubuntu1 "}
